target datalayout = "e-m:e-p270:32:32-p271:32:32-p272:64:64-i64:64-i128:128-f80:128-n8:16:32:64-S128"
target triple = "x86_64-pc-linux-gnu"

%struct.ZSTD_customMem = type { ptr, ptr, ptr }
%union.pthread_mutex_t = type { %struct.__pthread_mutex_s }
%struct.__pthread_mutex_s = type { i32, i32, i32, i32, i32, i16, i16, %struct.__pthread_internal_list }
%struct.__pthread_internal_list = type { ptr, ptr }
%struct.ZSTDMT_bufferPool_s = type { %union.pthread_mutex_t, i64, i32, i32, %struct.ZSTD_customMem, ptr }

; Function Attrs: inlinehint nounwind uwtable
define internal void @ZSTD_customFree(ptr noundef %0, ptr noundef byval(%struct.ZSTD_customMem) align 8 %1) #1 {
  %3 = alloca ptr, align 8
  store ptr %0, ptr %3, align 8, !tbaa !16
  %4 = load ptr, ptr %3, align 8, !tbaa !16
  %5 = icmp ne ptr %4, null
  br i1 %5, label %6, label %19

6:                                                ; preds = %2
  %7 = getelementptr inbounds nuw %struct.ZSTD_customMem, ptr %1, i32 0, i32 1
  %8 = load ptr, ptr %7, align 8, !tbaa !12
  %9 = icmp ne ptr %8, null
  br i1 %9, label %10, label %16

10:                                               ; preds = %6
  %11 = getelementptr inbounds nuw %struct.ZSTD_customMem, ptr %1, i32 0, i32 1
  %12 = load ptr, ptr %11, align 8, !tbaa !12
  %13 = getelementptr inbounds nuw %struct.ZSTD_customMem, ptr %1, i32 0, i32 2
  %14 = load ptr, ptr %13, align 8, !tbaa !72
  %15 = load ptr, ptr %3, align 8, !tbaa !16
  call void %12(ptr noundef %14, ptr noundef %15)
  br label %18

16:                                               ; preds = %6
  %17 = load ptr, ptr %3, align 8, !tbaa !16
  call void @free(ptr noundef %17) #11
  br label %18

18:                                               ; preds = %16, %10
  br label %19

19:                                               ; preds = %18, %2
  ret void
}

; Function Attrs: inlinehint nounwind uwtable
define internal ptr @ZSTD_customCalloc(i64 noundef %0, ptr noundef byval(%struct.ZSTD_customMem) align 8 %1) #1 {
  %3 = alloca ptr, align 8
  %4 = alloca i64, align 8
  %5 = alloca ptr, align 8
  store i64 %0, ptr %4, align 8, !tbaa !45
  %6 = getelementptr inbounds nuw %struct.ZSTD_customMem, ptr %1, i32 0, i32 0
  %7 = load ptr, ptr %6, align 8, !tbaa !10
  %8 = icmp ne ptr %7, null
  br i1 %8, label %9, label %19

9:                                                ; preds = %2
  call void @llvm.lifetime.start.p0(i64 8, ptr %5) #11
  %10 = getelementptr inbounds nuw %struct.ZSTD_customMem, ptr %1, i32 0, i32 0
  %11 = load ptr, ptr %10, align 8, !tbaa !10
  %12 = getelementptr inbounds nuw %struct.ZSTD_customMem, ptr %1, i32 0, i32 2
  %13 = load ptr, ptr %12, align 8, !tbaa !72
  %14 = load i64, ptr %4, align 8, !tbaa !45
  %15 = call ptr %11(ptr noundef %13, i64 noundef %14)
  store ptr %15, ptr %5, align 8, !tbaa !16
  %16 = load ptr, ptr %5, align 8, !tbaa !16
  %17 = load i64, ptr %4, align 8, !tbaa !45
  call void @llvm.memset.p0.i64(ptr align 1 %16, i8 0, i64 %17, i1 false)
  %18 = load ptr, ptr %5, align 8, !tbaa !16
  store ptr %18, ptr %3, align 8
  call void @llvm.lifetime.end.p0(i64 8, ptr %5) #11
  br label %22

19:                                               ; preds = %2
  %20 = load i64, ptr %4, align 8, !tbaa !45
  %21 = call noalias ptr @calloc(i64 noundef 1, i64 noundef %20) #14
  store ptr %21, ptr %3, align 8
  br label %22

22:                                               ; preds = %19, %9
  %23 = load ptr, ptr %3, align 8
  ret ptr %23
}

; Function Attrs: nounwind uwtable
define internal ptr @ZSTDMT_createBufferPool(i32 noundef %0, ptr noundef byval(%struct.ZSTD_customMem) align 8 %1) #0 {
  %3 = alloca ptr, align 8
  %4 = alloca i32, align 4
  %5 = alloca ptr, align 8
  %6 = alloca i32, align 4
  store i32 %0, ptr %4, align 4, !tbaa !3
  call void @llvm.lifetime.start.p0(i64 8, ptr %5) #11
  %7 = call ptr @ZSTD_customCalloc(i64 noundef 88, ptr noundef byval(%struct.ZSTD_customMem) align 8 %1)
  store ptr %7, ptr %5, align 8, !tbaa !56
  %8 = load ptr, ptr %5, align 8, !tbaa !56
  %9 = icmp eq ptr %8, null
  br i1 %9, label %10, label %11

10:                                               ; preds = %2
  store ptr null, ptr %3, align 8
  store i32 1, ptr %6, align 4
  br label %42

11:                                               ; preds = %2
  %12 = load ptr, ptr %5, align 8, !tbaa !56
  %13 = getelementptr inbounds nuw %struct.ZSTDMT_bufferPool_s, ptr %12, i32 0, i32 0
  %14 = call i32 @pthread_mutex_init(ptr noundef %13, ptr noundef null) #11
  %15 = icmp ne i32 %14, 0
  br i1 %15, label %16, label %18

16:                                               ; preds = %11
  %17 = load ptr, ptr %5, align 8, !tbaa !56
  call void @ZSTD_customFree(ptr noundef %17, ptr noundef byval(%struct.ZSTD_customMem) align 8 %1)
  store ptr null, ptr %3, align 8
  store i32 1, ptr %6, align 4
  br label %42

18:                                               ; preds = %11
  %19 = load i32, ptr %4, align 4, !tbaa !3
  %20 = zext i32 %19 to i64
  %21 = mul i64 %20, 16
  %22 = call ptr @ZSTD_customCalloc(i64 noundef %21, ptr noundef byval(%struct.ZSTD_customMem) align 8 %1)
  %23 = load ptr, ptr %5, align 8, !tbaa !56
  %24 = getelementptr inbounds nuw %struct.ZSTDMT_bufferPool_s, ptr %23, i32 0, i32 5
  store ptr %22, ptr %24, align 8, !tbaa !57
  %25 = load ptr, ptr %5, align 8, !tbaa !56
  %26 = getelementptr inbounds nuw %struct.ZSTDMT_bufferPool_s, ptr %25, i32 0, i32 5
  %27 = load ptr, ptr %26, align 8, !tbaa !57
  %28 = icmp eq ptr %27, null
  br i1 %28, label %29, label %31

29:                                               ; preds = %18
  %30 = load ptr, ptr %5, align 8, !tbaa !56
  call void @ZSTDMT_freeBufferPool(ptr noundef %30)
  store ptr null, ptr %3, align 8
  store i32 1, ptr %6, align 4
  br label %42

31:                                               ; preds = %18
  %32 = load ptr, ptr %5, align 8, !tbaa !56
  %33 = getelementptr inbounds nuw %struct.ZSTDMT_bufferPool_s, ptr %32, i32 0, i32 1
  store i64 65536, ptr %33, align 8, !tbaa !128
  %34 = load i32, ptr %4, align 4, !tbaa !3
  %35 = load ptr, ptr %5, align 8, !tbaa !56
  %36 = getelementptr inbounds nuw %struct.ZSTDMT_bufferPool_s, ptr %35, i32 0, i32 2
  store i32 %34, ptr %36, align 8, !tbaa !60
  %37 = load ptr, ptr %5, align 8, !tbaa !56
  %38 = getelementptr inbounds nuw %struct.ZSTDMT_bufferPool_s, ptr %37, i32 0, i32 3
  store i32 0, ptr %38, align 4, !tbaa !175
  %39 = load ptr, ptr %5, align 8, !tbaa !56
  %40 = getelementptr inbounds nuw %struct.ZSTDMT_bufferPool_s, ptr %39, i32 0, i32 4
  call void @llvm.memcpy.p0.p0.i64(ptr align 8 %40, ptr align 8 %1, i64 24, i1 false), !tbaa.struct !15
  %41 = load ptr, ptr %5, align 8, !tbaa !56
  store ptr %41, ptr %3, align 8
  store i32 1, ptr %6, align 4
  br label %42

42:                                               ; preds = %31, %29, %16, %10
  call void @llvm.lifetime.end.p0(i64 8, ptr %5) #11
  %43 = load ptr, ptr %3, align 8
  ret ptr %43
}