; Function Attrs: nounwind uwtable
define internal fastcc noundef ptr @ZSTDMT_createBufferPool(i32 noundef %0, ptr noundef readonly byval(%struct.ZSTD_customMem) align 8 captures(none) %1) unnamed_addr #0 {
  %.val15 = load ptr, ptr %1, align 8, !tbaa !7
  %3 = getelementptr inbounds nuw i8, ptr %1, i64 16
  %.val16 = load ptr, ptr %3, align 8
  %.not.i = icmp eq ptr %.val15, null
  br i1 %.not.i, label %ZSTD_customCalloc.exit, label %.thread

ZSTD_customCalloc.exit:                           ; preds = %2
  %4 = tail call noalias dereferenceable_or_null(88) ptr @calloc(i64 noundef 1, i64 noundef 88) #15
  %5 = icmp eq ptr %4, null
  br i1 %5, label %ZSTD_customFree.exit, label %6

6:                                                ; preds = %ZSTD_customCalloc.exit
  %7 = tail call i32 @pthread_mutex_init(ptr noundef nonnull %4, ptr noundef null) #14
  %.not = icmp eq i32 %7, 0
  br i1 %.not, label %18, label %10

.thread:                                          ; preds = %2
  %8 = tail call ptr %.val15(ptr noundef %.val16, i64 noundef 88) #14
  tail call void @llvm.memset.p0.i64(ptr noundef nonnull align 1 dereferenceable(88) %8, i8 0, i64 88, i1 false)
  %9 = tail call i32 @pthread_mutex_init(ptr noundef nonnull %8, ptr noundef null) #14
  %.not26 = icmp eq i32 %9, 0
  br i1 %.not26, label %14, label %10

10:                                               ; preds = %.thread, %6
  %.0.i2428 = phi ptr [ %8, %.thread ], [ %4, %6 ]
  %11 = getelementptr inbounds nuw i8, ptr %1, i64 8
  %.val17 = load ptr, ptr %11, align 8
  %.not4.i = icmp eq ptr %.val17, null
  br i1 %.not4.i, label %13, label %12

12:                                               ; preds = %10
  tail call void %.val17(ptr noundef %.val16, ptr noundef nonnull %.0.i2428) #14
  br label %ZSTD_customFree.exit

13:                                               ; preds = %10
  tail call void @free(ptr noundef nonnull %.0.i2428) #14
  br label %ZSTD_customFree.exit

14:                                               ; preds = %.thread
  %15 = zext i32 %0 to i64
  %16 = shl nuw nsw i64 %15, 4
  %17 = tail call ptr %.val15(ptr noundef %.val16, i64 noundef range(i64 -17179869184, 1958505086521) %16) #14
  tail call void @llvm.memset.p0.i64(ptr align 1 %17, i8 0, i64 range(i64 -17179869184, 1958505086521) %16, i1 false)
  br label %ZSTD_customCalloc.exit22

18:                                               ; preds = %6
  %19 = zext i32 %0 to i64
  %20 = shl nuw nsw i64 %19, 4
  %21 = tail call noalias ptr @calloc(i64 noundef 1, i64 noundef range(i64 -17179869184, 1958505086521) %20) #15
  br label %ZSTD_customCalloc.exit22

ZSTD_customCalloc.exit22:                         ; preds = %14, %18
  %.0.i242731 = phi ptr [ %8, %14 ], [ %4, %18 ]
  %.0.i21 = phi ptr [ %17, %14 ], [ %21, %18 ]
  %22 = getelementptr inbounds nuw i8, ptr %.0.i242731, i64 80
  store ptr %.0.i21, ptr %22, align 8, !tbaa !54
  %23 = icmp eq ptr %.0.i21, null
  br i1 %23, label %24, label %25

24:                                               ; preds = %ZSTD_customCalloc.exit22
  tail call fastcc void @ZSTDMT_freeBufferPool(ptr noundef nonnull %.0.i242731)
  br label %ZSTD_customFree.exit

25:                                               ; preds = %ZSTD_customCalloc.exit22
  %26 = getelementptr inbounds nuw i8, ptr %.0.i242731, i64 40
  store i64 65536, ptr %26, align 8, !tbaa !39
  %27 = getelementptr inbounds nuw i8, ptr %.0.i242731, i64 48
  store i32 %0, ptr %27, align 8, !tbaa !53
  %28 = getelementptr inbounds nuw i8, ptr %.0.i242731, i64 52
  store i32 0, ptr %28, align 4, !tbaa !52
  %29 = getelementptr inbounds nuw i8, ptr %.0.i242731, i64 56
  call void @llvm.memcpy.p0.p0.i64(ptr noundef nonnull align 8 dereferenceable(24) %29, ptr noundef nonnull align 8 dereferenceable(24) %1, i64 24, i1 false), !tbaa.struct !11
  br label %ZSTD_customFree.exit

ZSTD_customFree.exit:                             ; preds = %13, %12, %ZSTD_customCalloc.exit, %25, %24
  %.0 = phi ptr [ null, %24 ], [ %.0.i242731, %25 ], [ null, %ZSTD_customCalloc.exit ], [ null, %12 ], [ null, %13 ]
  ret ptr %.0
}